ccopy_reg
_reconstructor
p1
(cargparse
Namespace
p2
c__builtin__
object
p3
NtRp4
(dp5
S'grad_clip'
p6
F5
sS'vocab_size'
p7
I5
sS'vocab_file'
p8
S'simple_vocab.pkl'
p9
sS'keep_prob'
p10
F0.5
sS'num_layers'
p11
I1
sS'data_dir'
p12
S'data/gan'
p13
sS'num_epochs_gen'
p14
I1
sS'num_epochs_dis'
p15
I1
sS'decay_rate'
p16
F0.96999999999999997
sS'save_dir_dis'
p17
S'models_GAN/discriminator'
p18
sS'log_dir'
p19
S'logs'
p20
sS'batch_size'
p21
I10
sS'num_epochs_GAN'
p22
I25
sS'learning_rate_gen'
p23
F0.0001
sS'fake_input_file'
p24
S'fake_reviews.txt'
p25
sS'save_dir_GAN'
p26
S'models_GAN'
p27
sS'save_every'
p28
I500
sS'prime'
p29
S' '
sS'rnn_size'
p30
I128
sS'seq_length'
p31
I30
sS'n'
I10
sS'learning_rate_dis'
p32
F0.00020000000000000001
sS'model'
p33
S'lstm'
p34
sS'real_input_file'
p35
S'real_reviews.txt'
p36
sb.